  400704:       3c088000        lui     t0,0x8000
  400708:       2009ffff        addi    t1,zero,-1
  40070c:       ad090004        sw      t1,4(t0)
  400710:       8d020000        lw      v0,0(t0)
  400714:       205e0000        addi    s8,v0,0
  400718:       001ef100        sll     s8,s8,0x4
  40071c:       00408825        move    s1,v0
  400720:       00009025        move    s2,zero
  400724:       02201025        move    v0,s1
  400728:       00021080        sll     v0,v0,0x2
  40072c:       02428021        addu    s0,s2,v0
  400730:       02201025        move    v0,s1
  400734:       00021080        sll     v0,v0,0x2
  400738:       0202a021        addu    s4,s0,v0
  40073c:       02201025        move    v0,s1
  400740:       00021080        sll     v0,v0,0x2
  400744:       0282a821        addu    s5,s4,v0
  400748:       ae400000        sw      zero,0(s2)
  40074c:       24020001        li      v0,1
  400750:       ae020000        sw      v0,0(s0)
  400754:       24130001        li      s3,1
  400758:       1000001d        b       4007d0 <main+0xf0>
  40075c:       00000000        nop
  400760:       02601825        move    v1,s3
  400764:       3c023fff        lui     v0,0x3fff
  400768:       3442ffff        ori     v0,v0,0xffff
  40076c:       00621021        addu    v0,v1,v0
  400770:       00021080        sll     v0,v0,0x2
  400774:       02421021        addu    v0,s2,v0
  400778:       8c430000        lw      v1,0(v0)
  40077c:       02601025        move    v0,s3
  400780:       00021080        sll     v0,v0,0x2
  400784:       02421021        addu    v0,s2,v0
  400788:       02631821        addu    v1,s3,v1
  40078c:       ac430000        sw      v1,0(v0)
  400790:       02601825        move    v1,s3
  400794:       3c023fff        lui     v0,0x3fff
  400798:       3442ffff        ori     v0,v0,0xffff
  40079c:       00621021        addu    v0,v1,v0
  4007a0:       00021080        sll     v0,v0,0x2
  4007a4:       02021021        addu    v0,s0,v0
  4007a8:       8c440000        lw      a0,0(v0)
  4007ac:       02601025        move    v0,s3
  4007b0:       00021040        sll     v0,v0,0x1
  4007b4:       00531821        addu    v1,v0,s3
  4007b8:       02601025        move    v0,s3
  4007bc:       00021080        sll     v0,v0,0x2
  4007c0:       02021021        addu    v0,s0,v0
  4007c4:       00831821        addu    v1,a0,v1
  4007c8:       ac430000        sw      v1,0(v0)
  4007cc:       26730001        addiu   s3,s3,1
  4007d0:       0271102a        slt     v0,s3,s1
  4007d4:       1440ffe2        bnez    v0,400760 <main+0x80>
  4007d8:       00000000        nop
  4007dc:       00009825        move    s3,zero
  4007e0:       10000012        b       40082c <main+0x14c>
  4007e4:       00000000        nop
  4007e8:       02601025        move    v0,s3
  4007ec:       00021080        sll     v0,v0,0x2
  4007f0:       02421821        addu    v1,s2,v0
  4007f4:       02601025        move    v0,s3
  4007f8:       00021080        sll     v0,v0,0x2
  4007fc:       02821021        addu    v0,s4,v0
  400800:       8c630000        lw      v1,0(v1)
  400804:       ac430000        sw      v1,0(v0)
  400808:       02601025        move    v0,s3
  40080c:       00021080        sll     v0,v0,0x2
  400810:       02021821        addu    v1,s0,v0
  400814:       02601025        move    v0,s3
  400818:       00021080        sll     v0,v0,0x2
  40081c:       02a21021        addu    v0,s5,v0
  400820:       8c630000        lw      v1,0(v1)
  400824:       ac430000        sw      v1,0(v0)
  400828:       26730001        addiu   s3,s3,1
  40082c:       2a620014        slti    v0,s3,20
  400830:       10400004        beqz    v0,400844 <main+0x164>
  400834:       00000000        nop
  400838:       0271102a        slt     v0,s3,s1
  40083c:       1440ffea        bnez    v0,4007e8 <main+0x108>
  400840:       00000000        nop
  400844:       24130014        li      s3,20
  400848:       1000000f        b       400888 <main+0x1a8>
  40084c:       00000000        nop
  400850:       02601025        move    v0,s3
  400854:       00021080        sll     v0,v0,0x2
  400858:       02421021        addu    v0,s2,v0
  40085c:       8c440000        lw      a0,0(v0)
  400860:       02601025        move    v0,s3
  400864:       00021080        sll     v0,v0,0x2
  400868:       02021021        addu    v0,s0,v0
  40086c:       8c430000        lw      v1,0(v0)
  400870:       02601025        move    v0,s3
  400874:       00021080        sll     v0,v0,0x2
  400878:       02821021        addu    v0,s4,v0
  40087c:       00831821        addu    v1,a0,v1
  400880:       ac430000        sw      v1,0(v0)
  400884:       26730001        addiu   s3,s3,1
  400888:       2a620028        slti    v0,s3,40
  40088c:       10400004        beqz    v0,4008a0 <main+0x1c0>
  400890:       00000000        nop
  400894:       0271102a        slt     v0,s3,s1
  400898:       1440ffed        bnez    v0,400850 <main+0x170>
  40089c:       00000000        nop
  4008a0:       24130028        li      s3,40
  4008a4:       1000000f        b       4008e4 <main+0x204>
  4008a8:       00000000        nop
  4008ac:       02601025        move    v0,s3
  4008b0:       00021080        sll     v0,v0,0x2
  4008b4:       02421021        addu    v0,s2,v0
  4008b8:       8c440000        lw      a0,0(v0)
  4008bc:       02601025        move    v0,s3
  4008c0:       00021080        sll     v0,v0,0x2
  4008c4:       02021021        addu    v0,s0,v0
  4008c8:       8c430000        lw      v1,0(v0)
  4008cc:       02601025        move    v0,s3
  4008d0:       00021080        sll     v0,v0,0x2
  4008d4:       02821021        addu    v0,s4,v0
  4008d8:       70831802        mul     v1,a0,v1
  4008dc:       ac430000        sw      v1,0(v0)
  4008e0:       26730001        addiu   s3,s3,1
  4008e4:       0271102a        slt     v0,s3,s1
  4008e8:       10400004        beqz    v0,4008fc <main+0x21c>
  4008ec:       00000000        nop
  4008f0:       0271102a        slt     v0,s3,s1
  4008f4:       1440ffed        bnez    v0,4008ac <main+0x1cc>
  4008f8:       00000000        nop
  4008fc:       24130014        li      s3,20
  400900:       1000000f        b       400940 <main+0x260>
  400904:       00000000        nop
  400908:       02601025        move    v0,s3
  40090c:       00021080        sll     v0,v0,0x2
  400910:       02421021        addu    v0,s2,v0
  400914:       8c440000        lw      a0,0(v0)
  400918:       02601025        move    v0,s3
  40091c:       00021080        sll     v0,v0,0x2
  400920:       02821021        addu    v0,s4,v0
  400924:       8c430000        lw      v1,0(v0)
  400928:       02601025        move    v0,s3
  40092c:       00021080        sll     v0,v0,0x2
  400930:       02a21021        addu    v0,s5,v0
  400934:       70831802        mul     v1,a0,v1
  400938:       ac430000        sw      v1,0(v0)
  40093c:       26730001        addiu   s3,s3,1
  400940:       2a620028        slti    v0,s3,40
  400944:       10400004        beqz    v0,400958 <main+0x278>
  400948:       00000000        nop
  40094c:       0271102a        slt     v0,s3,s1
  400950:       1440ffed        bnez    v0,400908 <main+0x228>
  400954:       00000000        nop
  400958:       24120028        li      s2,40
  40095c:       1000000f        b       40099c <main+0x2bc>
  400960:       00000000        nop
  400964:       02401025        move    v0,s2
  400968:       00021080        sll     v0,v0,0x2
  40096c:       02821021        addu    v0,s4,v0
  400970:       8c440000        lw      a0,0(v0)
  400974:       02401025        move    v0,s2
  400978:       00021080        sll     v0,v0,0x2
  40097c:       02021021        addu    v0,s0,v0
  400980:       8c430000        lw      v1,0(v0)
  400984:       02401025        move    v0,s2
  400988:       00021080        sll     v0,v0,0x2
  40098c:       02a21021        addu    v0,s5,v0
  400990:       70831802        mul     v1,a0,v1
  400994:       ac430000        sw      v1,0(v0)
  400998:       26520001        addiu   s2,s2,1
  40099c:       0251102a        slt     v0,s2,s1
  4009a0:       1440fff0        bnez    v0,400964 <main+0x284>
  4009a4:       00000000        nop
  4009a8:       02201825        move    v1,s1
  4009ac:       3c023fff        lui     v0,0x3fff
  4009b0:       3442ffff        ori     v0,v0,0xffff
  4009b4:       00621021        addu    v0,v1,v0
  4009b8:       00021080        sll     v0,v0,0x2
  4009bc:       02a21021        addu    v0,s5,v0
  4009c0:       8c420000        lw      v0,0(v0)
  4009c4:       3c088000        lui     t0,0x8000
  4009c8:       ad020004        sw      v0,4(t0)

004009cc <END_TRAP>:
  4009cc:       1000ffff        b       4009cc <END_TRAP>
  4009d0:       00000000        nop