00400704 <SYSTEM_BOOT>:
  400704:       1000001e        b       400780 <PROGRAM_INIT>
  400708:       00000000        nop

0040070c <EXCEPTION_PROCESS>:
  40070c:       40883800        mtc0    t0,c0_hwrena
  400710:       40086800        mfc0    t0,c0_cause
  400714:       2108ffe0        addi    t0,t0,-32
  400718:       11000016        beqz    t0,400774 <EXC_RET>
  40071c:       00000000        nop
  400720:       4008a000        mfc0    t0,c0_xcontext
  400724:       11000006        beqz    t0,400740 <SELF_TRAP>
  400728:       00000000        nop
  40072c:       4008b000        mfc0    t0,$22
  400730:       40887000        mtc0    t0,c0_epc
  400734:       4080a000        mtc0    zero,c0_xcontext
  400738:       1000000e        b       400774 <EXC_RET>
  40073c:       00000000        nop

00400740 <SELF_TRAP>:
  400740:       4089a800        mtc0    t1,$21
  400744:       3c098000        lui     t1,0x8000
  400748:       8c080000        lw      t0,0(zero)
  40074c:       ad280008        sw      t0,8(t1)
  400750:       4009a800        mfc0    t1,$21
  400754:       40087000        mfc0    t0,c0_epc
  400758:       4088b000        mtc0    t0,$22
  40075c:       20080001        addi    t0,zero,1
  400760:       4088a000        mtc0    t0,c0_xcontext
  400764:       40886000        mtc0    t0,c0_status
  400768:       40083800        mfc0    t0,c0_hwrena

0040076c <S_TRAP>:
  40076c:       1000ffff        b       40076c <S_TRAP>
  400770:       00000000        nop

00400774 <EXC_RET>:
  400774:       40083800        mfc0    t0,c0_hwrena
  400778:       42000018        eret
  40077c:       00000000        nop

00400780 <PROGRAM_INIT>:
  400780:       3c088000        lui     t0,0x8000
  400784:       2009ffff        addi    t1,zero,-1
  400788:       ad090004        sw      t1,4(t0)
  40078c:       8d020000        lw      v0,0(t0)
  400790:       205e0000        addi    s8,v0,0
  400794:       001ef100        sll     s8,s8,0x4
  400798:       23de0004        addi    s8,s8,4

0040079c <END_INIT>:
  40079c:       00409825        move    s3,v0
  4007a0:       24120004        li      s2,4
  4007a4:       02601025        move    v0,s3
  4007a8:       00021080        sll     v0,v0,0x2
  4007ac:       02428021        addu    s0,s2,v0
  4007b0:       02601025        move    v0,s3
  4007b4:       00021080        sll     v0,v0,0x2
  4007b8:       02028821        addu    s1,s0,v0
  4007bc:       02601025        move    v0,s3
  4007c0:       00021080        sll     v0,v0,0x2
  4007c4:       0222a021        addu    s4,s1,v0
  4007c8:       ae400000        sw      zero,0(s2)
  4007cc:       24020001        li      v0,1
  4007d0:       ae020000        sw      v0,0(s0)
  4007d4:       24150001        li      s5,1
  4007d8:       10000027        b       400878 <END_INIT+0xdc>
  4007dc:       00000000        nop
  4007e0:       02a01825        move    v1,s5
  4007e4:       3c023fff        lui     v0,0x3fff
  4007e8:       3442ffff        ori     v0,v0,0xffff
  4007ec:       00621021        addu    v0,v1,v0
  4007f0:       00021080        sll     v0,v0,0x2
  4007f4:       02421021        addu    v0,s2,v0
  4007f8:       8c430000        lw      v1,0(v0)
  4007fc:       02a01025        move    v0,s5
  400800:       00021080        sll     v0,v0,0x2
  400804:       02421021        addu    v0,s2,v0
  400808:       02a31821        addu    v1,s5,v1
  40080c:       ac430000        sw      v1,0(v0)
  400810:       02a01025        move    v0,s5
  400814:       00021080        sll     v0,v0,0x2
  400818:       02421021        addu    v0,s2,v0
  40081c:       8c420000        lw      v0,0(v0)
  400820:       ac020000        sw      v0,0(zero)
  400824:       02a01825        move    v1,s5
  400828:       3c023fff        lui     v0,0x3fff
  40082c:       3442ffff        ori     v0,v0,0xffff
  400830:       00621021        addu    v0,v1,v0
  400834:       00021080        sll     v0,v0,0x2
  400838:       02021021        addu    v0,s0,v0
  40083c:       8c440000        lw      a0,0(v0)
  400840:       02a01025        move    v0,s5
  400844:       00021040        sll     v0,v0,0x1
  400848:       00551821        addu    v1,v0,s5
  40084c:       02a01025        move    v0,s5
  400850:       00021080        sll     v0,v0,0x2
  400854:       02021021        addu    v0,s0,v0
  400858:       00831821        addu    v1,a0,v1
  40085c:       ac430000        sw      v1,0(v0)
  400860:       02a01025        move    v0,s5
  400864:       00021080        sll     v0,v0,0x2
  400868:       02021021        addu    v0,s0,v0
  40086c:       8c420000        lw      v0,0(v0)
  400870:       ac020000        sw      v0,0(zero)
  400874:       26b50001        addiu   s5,s5,1
  400878:       02b3102a        slt     v0,s5,s3
  40087c:       1440ffd8        bnez    v0,4007e0 <END_INIT+0x44>
  400880:       00000000        nop
  400884:       0000a825        move    s5,zero
  400888:       1000001c        b       4008fc <END_INIT+0x160>
  40088c:       00000000        nop
  400890:       02a01025        move    v0,s5
  400894:       00021080        sll     v0,v0,0x2
  400898:       02421821        addu    v1,s2,v0
  40089c:       02a01025        move    v0,s5
  4008a0:       00021080        sll     v0,v0,0x2
  4008a4:       02221021        addu    v0,s1,v0
  4008a8:       8c630000        lw      v1,0(v1)
  4008ac:       ac430000        sw      v1,0(v0)
  4008b0:       02a01025        move    v0,s5
  4008b4:       00021080        sll     v0,v0,0x2
  4008b8:       02221021        addu    v0,s1,v0
  4008bc:       8c420000        lw      v0,0(v0)
  4008c0:       ac020000        sw      v0,0(zero)
  4008c4:       02a01025        move    v0,s5
  4008c8:       00021080        sll     v0,v0,0x2
  4008cc:       02021821        addu    v1,s0,v0
  4008d0:       02a01025        move    v0,s5
  4008d4:       00021080        sll     v0,v0,0x2
  4008d8:       02821021        addu    v0,s4,v0
  4008dc:       8c630000        lw      v1,0(v1)
  4008e0:       ac430000        sw      v1,0(v0)
  4008e4:       02a01025        move    v0,s5
  4008e8:       00021080        sll     v0,v0,0x2
  4008ec:       02821021        addu    v0,s4,v0
  4008f0:       8c420000        lw      v0,0(v0)
  4008f4:       ac020000        sw      v0,0(zero)
  4008f8:       26b50001        addiu   s5,s5,1
  4008fc:       2aa20014        slti    v0,s5,20
  400900:       10400004        beqz    v0,400914 <END_INIT+0x178>
  400904:       00000000        nop
  400908:       02b3102a        slt     v0,s5,s3
  40090c:       1440ffe0        bnez    v0,400890 <END_INIT+0xf4>
  400910:       00000000        nop
  400914:       24150014        li      s5,20
  400918:       10000014        b       40096c <END_INIT+0x1d0>
  40091c:       00000000        nop
  400920:       02a01025        move    v0,s5
  400924:       00021080        sll     v0,v0,0x2
  400928:       02421021        addu    v0,s2,v0
  40092c:       8c440000        lw      a0,0(v0)
  400930:       02a01025        move    v0,s5
  400934:       00021080        sll     v0,v0,0x2
  400938:       02021021        addu    v0,s0,v0
  40093c:       8c430000        lw      v1,0(v0)
  400940:       02a01025        move    v0,s5
  400944:       00021080        sll     v0,v0,0x2
  400948:       02221021        addu    v0,s1,v0
  40094c:       00831821        addu    v1,a0,v1
  400950:       ac430000        sw      v1,0(v0)
  400954:       02a01025        move    v0,s5
  400958:       00021080        sll     v0,v0,0x2
  40095c:       02221021        addu    v0,s1,v0
  400960:       8c420000        lw      v0,0(v0)
  400964:       ac020000        sw      v0,0(zero)
  400968:       26b50001        addiu   s5,s5,1
  40096c:       2aa20028        slti    v0,s5,40
  400970:       10400004        beqz    v0,400984 <END_INIT+0x1e8>
  400974:       00000000        nop
  400978:       02b3102a        slt     v0,s5,s3
  40097c:       1440ffe8        bnez    v0,400920 <END_INIT+0x184>
  400980:       00000000        nop
  400984:       24150028        li      s5,40
  400988:       10000014        b       4009dc <END_INIT+0x240>
  40098c:       00000000        nop
  400990:       02a01025        move    v0,s5
  400994:       00021080        sll     v0,v0,0x2
  400998:       02421021        addu    v0,s2,v0
  40099c:       8c440000        lw      a0,0(v0)
  4009a0:       02a01025        move    v0,s5
  4009a4:       00021080        sll     v0,v0,0x2
  4009a8:       02021021        addu    v0,s0,v0
  4009ac:       8c430000        lw      v1,0(v0)
  4009b0:       02a01025        move    v0,s5
  4009b4:       00021080        sll     v0,v0,0x2
  4009b8:       02221021        addu    v0,s1,v0
  4009bc:       70831802        mul     v1,a0,v1
  4009c0:       ac430000        sw      v1,0(v0)
  4009c4:       02a01025        move    v0,s5
  4009c8:       00021080        sll     v0,v0,0x2
  4009cc:       02221021        addu    v0,s1,v0
  4009d0:       8c420000        lw      v0,0(v0)
  4009d4:       ac020000        sw      v0,0(zero)
  4009d8:       26b50001        addiu   s5,s5,1
  4009dc:       02b3102a        slt     v0,s5,s3
  4009e0:       10400004        beqz    v0,4009f4 <END_INIT+0x258>
  4009e4:       00000000        nop
  4009e8:       02b3102a        slt     v0,s5,s3
  4009ec:       1440ffe8        bnez    v0,400990 <END_INIT+0x1f4>
  4009f0:       00000000        nop
  4009f4:       24150014        li      s5,20
  4009f8:       10000014        b       400a4c <END_INIT+0x2b0>
  4009fc:       00000000        nop
  400a00:       02a01025        move    v0,s5
  400a04:       00021080        sll     v0,v0,0x2
  400a08:       02421021        addu    v0,s2,v0
  400a0c:       8c440000        lw      a0,0(v0)
  400a10:       02a01025        move    v0,s5
  400a14:       00021080        sll     v0,v0,0x2
  400a18:       02221021        addu    v0,s1,v0
  400a1c:       8c430000        lw      v1,0(v0)
  400a20:       02a01025        move    v0,s5
  400a24:       00021080        sll     v0,v0,0x2
  400a28:       02821021        addu    v0,s4,v0
  400a2c:       70831802        mul     v1,a0,v1
  400a30:       ac430000        sw      v1,0(v0)
  400a34:       02a01025        move    v0,s5
  400a38:       00021080        sll     v0,v0,0x2
  400a3c:       02821021        addu    v0,s4,v0
  400a40:       8c420000        lw      v0,0(v0)
  400a44:       ac020000        sw      v0,0(zero)
  400a48:       26b50001        addiu   s5,s5,1
  400a4c:       2aa20028        slti    v0,s5,40
  400a50:       10400004        beqz    v0,400a64 <END_INIT+0x2c8>
  400a54:       00000000        nop
  400a58:       02b3102a        slt     v0,s5,s3
  400a5c:       1440ffe8        bnez    v0,400a00 <END_INIT+0x264>
  400a60:       00000000        nop
  400a64:       24120028        li      s2,40
  400a68:       10000014        b       400abc <END_INIT+0x320>
  400a6c:       00000000        nop
  400a70:       02401025        move    v0,s2
  400a74:       00021080        sll     v0,v0,0x2
  400a78:       02221021        addu    v0,s1,v0
  400a7c:       8c440000        lw      a0,0(v0)
  400a80:       02401025        move    v0,s2
  400a84:       00021080        sll     v0,v0,0x2
  400a88:       02021021        addu    v0,s0,v0
  400a8c:       8c430000        lw      v1,0(v0)
  400a90:       02401025        move    v0,s2
  400a94:       00021080        sll     v0,v0,0x2
  400a98:       02821021        addu    v0,s4,v0
  400a9c:       70831802        mul     v1,a0,v1
  400aa0:       ac430000        sw      v1,0(v0)
  400aa4:       02401025        move    v0,s2
  400aa8:       00021080        sll     v0,v0,0x2
  400aac:       02821021        addu    v0,s4,v0
  400ab0:       8c420000        lw      v0,0(v0)
  400ab4:       ac020000        sw      v0,0(zero)
  400ab8:       26520001        addiu   s2,s2,1
  400abc:       0253102a        slt     v0,s2,s3
  400ac0:       1440ffeb        bnez    v0,400a70 <END_INIT+0x2d4>
  400ac4:       00000000        nop
  400ac8:       02601825        move    v1,s3
  400acc:       3c023fff        lui     v0,0x3fff
  400ad0:       3442ffff        ori     v0,v0,0xffff
  400ad4:       00621021        addu    v0,v1,v0
  400ad8:       00021080        sll     v0,v0,0x2
  400adc:       02821021        addu    v0,s4,v0
  400ae0:       8c420000        lw      v0,0(v0)
  400ae4:       3c088000        lui     t0,0x8000
  400ae8:       ad020004        sw      v0,4(t0)

00400aec <END_TRAP>:
  400aec:       1000ffff        b       400aec <END_TRAP>
  400af0:       00000000        nop